target datalayout = "e-m:e-p270:32:32-p271:32:32-p272:64:64-i64:64-i128:128-f80:128-n8:16:32:64-S128"
target triple = "x86_64-pc-linux-gnu"

%class.app = type { %class.expr, ptr, i32, %struct.app_flags, [0 x ptr] }
%class.expr = type { %class.ast }
%class.ast = type { i32, i32, i32, i32 }
%struct.app_flags = type <{ i16, i8, i8 }>
%"class.smt::relevancy_eh" = type { ptr }
%"class.smt::relevancy_propagator" = type { ptr, ptr }
%"class.smt::ite_relevancy_eh" = type { %"class.smt::relevancy_eh", ptr }

; Function Attrs: mustprogress nounwind uwtable
define linkonce_odr hidden noundef ptr @_ZNK3app7get_argEj(ptr noundef nonnull align 8 dereferenceable(32) %0, i32 noundef %1) #4 comdat align 2 {
  %3 = alloca ptr, align 8
  %4 = alloca i32, align 4
  store ptr %0, ptr %3, align 8, !tbaa !36
  store i32 %1, ptr %4, align 4, !tbaa !8
  %5 = load ptr, ptr %3, align 8
  %6 = getelementptr inbounds nuw %class.app, ptr %5, i32 0, i32 4
  %7 = load i32, ptr %4, align 4, !tbaa !8
  %8 = zext i32 %7 to i64
  %9 = getelementptr inbounds nuw [0 x ptr], ptr %6, i64 0, i64 %8
  %10 = load ptr, ptr %9, align 8, !tbaa !32
  ret ptr %10
}

; Function Attrs: mustprogress uwtable
define linkonce_odr hidden void @_ZN3smt24relevancy_propagator_imp22propagate_relevant_iteEP3app(ptr noundef nonnull align 8 dereferenceable(137) %0, ptr noundef %1) #6 comdat align 2 {
  %3 = alloca ptr, align 8
  %4 = alloca ptr, align 8
  store ptr %0, ptr %3, align 8, !tbaa !567
  store ptr %1, ptr %4, align 8, !tbaa !36
  %5 = load ptr, ptr %3, align 8
  %6 = load ptr, ptr %4, align 8, !tbaa !36
  %7 = call noundef ptr @_ZNK3app7get_argEj(ptr noundef nonnull align 8 dereferenceable(32) %6, i32 noundef 0)
  %8 = load ptr, ptr %5, align 8, !tbaa !34
  %9 = getelementptr inbounds ptr, ptr %8, i64 6
  %10 = load ptr, ptr %9, align 8
  call void %10(ptr noundef nonnull align 8 dereferenceable(137) %5, ptr noundef %7)
  %11 = getelementptr inbounds nuw %"class.smt::relevancy_propagator", ptr %5, i32 0, i32 1
  %12 = load ptr, ptr %11, align 8, !tbaa !59
  %13 = load ptr, ptr %4, align 8, !tbaa !36
  %14 = call noundef ptr @_ZNK3app7get_argEj(ptr noundef nonnull align 8 dereferenceable(32) %13, i32 noundef 0)
  %15 = call noundef i32 @_ZNK3smt7context15find_assignmentEP4expr(ptr noundef nonnull align 8 dereferenceable(10544) %12, ptr noundef %14)
  switch i32 %15, label %29 [
    i32 -1, label %16
    i32 0, label %22
    i32 1, label %23
  ]

16:                                               ; preds = %2
  %17 = load ptr, ptr %4, align 8, !tbaa !36
  %18 = call noundef ptr @_ZNK3app7get_argEj(ptr noundef nonnull align 8 dereferenceable(32) %17, i32 noundef 2)
  %19 = load ptr, ptr %5, align 8, !tbaa !34
  %20 = getelementptr inbounds ptr, ptr %19, i64 6
  %21 = load ptr, ptr %20, align 8
  call void %21(ptr noundef nonnull align 8 dereferenceable(137) %5, ptr noundef %18)
  br label %29

22:                                               ; preds = %2
  br label %29

23:                                               ; preds = %2
  %24 = load ptr, ptr %4, align 8, !tbaa !36
  %25 = call noundef ptr @_ZNK3app7get_argEj(ptr noundef nonnull align 8 dereferenceable(32) %24, i32 noundef 1)
  %26 = load ptr, ptr %5, align 8, !tbaa !34
  %27 = getelementptr inbounds ptr, ptr %26, i64 6
  %28 = load ptr, ptr %27, align 8
  call void %28(ptr noundef nonnull align 8 dereferenceable(137) %5, ptr noundef %25)
  br label %29

29:                                               ; preds = %2, %23, %22, %16
  ret void
}

; Function Attrs: mustprogress uwtable
define hidden void @_ZN3smt16ite_relevancy_ehclERNS_20relevancy_propagatorE(ptr noundef nonnull align 8 dereferenceable(16) %0, ptr noundef nonnull align 8 dereferenceable(16) %1) unnamed_addr #6 align 2 {
  %3 = alloca ptr, align 8
  %4 = alloca ptr, align 8
  store ptr %0, ptr %3, align 8, !tbaa !557
  store ptr %1, ptr %4, align 8, !tbaa !30
  %5 = load ptr, ptr %3, align 8
  %6 = load ptr, ptr %4, align 8, !tbaa !30
  %7 = getelementptr inbounds nuw %"class.smt::ite_relevancy_eh", ptr %5, i32 0, i32 1
  %8 = load ptr, ptr %7, align 8, !tbaa !559
  %9 = load ptr, ptr %6, align 8, !tbaa !34
  %10 = getelementptr inbounds ptr, ptr %9, i64 7
  %11 = load ptr, ptr %10, align 8
  %12 = call noundef zeroext i1 %11(ptr noundef nonnull align 8 dereferenceable(16) %6, ptr noundef %8)
  br i1 %12, label %13, label %17

13:                                               ; preds = %2
  %14 = load ptr, ptr %4, align 8, !tbaa !30
  %15 = getelementptr inbounds nuw %"class.smt::ite_relevancy_eh", ptr %5, i32 0, i32 1
  %16 = load ptr, ptr %15, align 8, !tbaa !559
  call void @_ZN3smt24relevancy_propagator_imp22propagate_relevant_iteEP3app(ptr noundef nonnull align 8 dereferenceable(137) %14, ptr noundef %16)
  br label %17

17:                                               ; preds = %13, %2
  ret void
}