; Function Attrs: mustprogress uwtable
define hidden void @_ZN3smt16ite_relevancy_ehclERNS_20relevancy_propagatorE(ptr noundef nonnull readonly align 8 captures(none) dereferenceable(16) %0, ptr noundef nonnull align 8 dereferenceable(16) %1) unnamed_addr #4 align 2 {
  %3 = getelementptr inbounds nuw i8, ptr %0, i64 8
  %4 = load ptr, ptr %3, align 8, !tbaa !528
  %5 = load ptr, ptr %1, align 8, !tbaa !3
  %6 = getelementptr inbounds nuw i8, ptr %5, i64 56
  %7 = load ptr, ptr %6, align 8
  %8 = tail call noundef zeroext i1 %7(ptr noundef nonnull align 8 dereferenceable(16) %1, ptr noundef %4)
  br i1 %8, label %9, label %_ZN3smt24relevancy_propagator_imp22propagate_relevant_iteEP3app.exit

9:                                                ; preds = %2
  %10 = load ptr, ptr %3, align 8, !tbaa !528
  %11 = getelementptr inbounds nuw i8, ptr %10, i64 32
  %12 = load ptr, ptr %11, align 8, !tbaa !15
  %13 = load ptr, ptr %1, align 8, !tbaa !3
  %14 = getelementptr inbounds nuw i8, ptr %13, i64 48
  %15 = load ptr, ptr %14, align 8
  tail call void %15(ptr noundef nonnull align 8 dereferenceable(137) %1, ptr noundef %12)
  %16 = getelementptr inbounds nuw i8, ptr %1, i64 8
  %17 = load ptr, ptr %16, align 8, !tbaa !28
  %18 = load ptr, ptr %11, align 8, !tbaa !15
  %19 = tail call noundef i32 @_ZNK3smt7context15find_assignmentEP4expr(ptr noundef nonnull align 8 dereferenceable(10544) %17, ptr noundef %18)
  switch i32 %19, label %_ZN3smt24relevancy_propagator_imp22propagate_relevant_iteEP3app.exit [
    i32 -1, label %.sink.split.i
    i32 1, label %20
  ]

20:                                               ; preds = %9
  br label %.sink.split.i

.sink.split.i:                                    ; preds = %20, %9
  %.sink.i = phi i64 [ 40, %20 ], [ 48, %9 ]
  %21 = getelementptr inbounds nuw i8, ptr %10, i64 %.sink.i
  %22 = load ptr, ptr %21, align 8, !tbaa !15
  %23 = load ptr, ptr %1, align 8, !tbaa !3
  %24 = getelementptr inbounds nuw i8, ptr %23, i64 48
  %25 = load ptr, ptr %24, align 8
  tail call void %25(ptr noundef nonnull align 8 dereferenceable(137) %1, ptr noundef %22)
  br label %_ZN3smt24relevancy_propagator_imp22propagate_relevant_iteEP3app.exit

_ZN3smt24relevancy_propagator_imp22propagate_relevant_iteEP3app.exit: ; preds = %.sink.split.i, %9, %2
  ret void
}